target datalayout = "e-m:e-p270:32:32-p271:32:32-p272:64:64-i64:64-i128:128-f80:128-n8:16:32:64-S128"
target triple = "x86_64-pc-linux-gnu"

; Function Attrs: nounwind uwtable
define internal i32 @operationPriority(i32 noundef %0) #0 {
  %2 = alloca i32, align 4
  %3 = alloca i32, align 4
  store i32 %0, ptr %3, align 4
  %4 = load i32, ptr %3, align 4
  switch i32 %4, label %11 [
    i32 5, label %5
    i32 4, label %6
    i32 8, label %7
    i32 9, label %7
    i32 10, label %7
    i32 11, label %7
    i32 12, label %7
    i32 13, label %7
    i32 41, label %7
    i32 14, label %8
    i32 15, label %8
    i32 16, label %9
    i32 17, label %9
    i32 18, label %9
    i32 19, label %10
    i32 20, label %10
  ]

5:                                                ; preds = %1
  store i32 0, ptr %2, align 4
  br label %12

6:                                                ; preds = %1
  store i32 1, ptr %2, align 4
  br label %12

7:                                                ; preds = %1, %1, %1, %1, %1, %1, %1
  store i32 2, ptr %2, align 4
  br label %12

8:                                                ; preds = %1, %1
  store i32 3, ptr %2, align 4
  br label %12

9:                                                ; preds = %1, %1, %1
  store i32 4, ptr %2, align 4
  br label %12

10:                                               ; preds = %1, %1
  store i32 5, ptr %2, align 4
  br label %12

11:                                               ; preds = %1
  store i32 6, ptr %2, align 4
  br label %12

12:                                               ; preds = %11, %10, %9, %8, %7, %6, %5
  %13 = load i32, ptr %2, align 4
  ret i32 %13
}