; Function Attrs: mustprogress nofree norecurse nosync nounwind willreturn memory(none) uwtable
define internal fastcc range(i32 0, 7) i32 @operationPriority(i32 noundef %0) unnamed_addr #8 {
  %switch.tableidx = add i32 %0, -4
  %2 = icmp ult i32 %switch.tableidx, 38
  br i1 %2, label %switch.lookup, label %4

switch.lookup:                                    ; preds = %1
  %3 = zext nneg i32 %switch.tableidx to i64
  %switch.gep = getelementptr inbounds nuw [38 x i32], ptr @switch.table.operationPriority, i64 0, i64 %3
  %switch.load = load i32, ptr %switch.gep, align 4
  br label %4

4:                                                ; preds = %1, %switch.lookup
  %.0 = phi i32 [ %switch.load, %switch.lookup ], [ 6, %1 ]
  ret i32 %.0
}